target datalayout = "e-m:e-p270:32:32-p271:32:32-p272:64:64-i64:64-i128:128-f80:128-n8:16:32:64-S128"
target triple = "x86_64-pc-linux-gnu"

%struct.VP8LHistogram = type { ptr, [256 x i32], [256 x i32], [256 x i32], [40 x i32], i32, i32, i64, i64, i64, i64, [5 x i8] }

; Function Attrs: nounwind uwtable
define internal void @HistogramClear(ptr noundef %0) #0 {
  %2 = alloca ptr, align 8
  %3 = alloca ptr, align 8
  %4 = alloca i32, align 4
  %5 = alloca i32, align 4
  store ptr %0, ptr %2, align 8, !tbaa !3
  call void @llvm.lifetime.start.p0(i64 8, ptr %3) #7
  %6 = load ptr, ptr %2, align 8, !tbaa !3
  %7 = getelementptr inbounds nuw %struct.VP8LHistogram, ptr %6, i32 0, i32 0
  %8 = load ptr, ptr %7, align 8, !tbaa !16
  store ptr %8, ptr %3, align 8, !tbaa !22
  call void @llvm.lifetime.start.p0(i64 4, ptr %4) #7
  %9 = load ptr, ptr %2, align 8, !tbaa !3
  %10 = getelementptr inbounds nuw %struct.VP8LHistogram, ptr %9, i32 0, i32 5
  %11 = load i32, ptr %10, align 8, !tbaa !21
  store i32 %11, ptr %4, align 4, !tbaa !14
  call void @llvm.lifetime.start.p0(i64 4, ptr %5) #7
  %12 = load i32, ptr %4, align 4, !tbaa !14
  %13 = call i32 @GetHistogramSize(i32 noundef %12)
  store i32 %13, ptr %5, align 4, !tbaa !14
  %14 = load ptr, ptr %2, align 8, !tbaa !3
  %15 = load i32, ptr %5, align 4, !tbaa !14
  %16 = sext i32 %15 to i64
  call void @llvm.memset.p0.i64(ptr align 8 %14, i8 0, i64 %16, i1 false)
  %17 = load i32, ptr %4, align 4, !tbaa !14
  %18 = load ptr, ptr %2, align 8, !tbaa !3
  %19 = getelementptr inbounds nuw %struct.VP8LHistogram, ptr %18, i32 0, i32 5
  store i32 %17, ptr %19, align 8, !tbaa !21
  %20 = load ptr, ptr %3, align 8, !tbaa !22
  %21 = load ptr, ptr %2, align 8, !tbaa !3
  %22 = getelementptr inbounds nuw %struct.VP8LHistogram, ptr %21, i32 0, i32 0
  store ptr %20, ptr %22, align 8, !tbaa !16
  call void @llvm.lifetime.end.p0(i64 4, ptr %5) #7
  call void @llvm.lifetime.end.p0(i64 4, ptr %4) #7
  call void @llvm.lifetime.end.p0(i64 8, ptr %3) #7
  ret void
}

; Function Attrs: inlinehint nounwind uwtable
define internal i32 @VP8LHistogramNumCodes(i32 noundef %0) #3 {
  %2 = alloca i32, align 4
  store i32 %0, ptr %2, align 4, !tbaa !14
  %3 = load i32, ptr %2, align 4, !tbaa !14
  %4 = icmp sgt i32 %3, 0
  br i1 %4, label %5, label %8

5:                                                ; preds = %1
  %6 = load i32, ptr %2, align 4, !tbaa !14
  %7 = shl i32 1, %6
  br label %9

8:                                                ; preds = %1
  br label %9

9:                                                ; preds = %8, %5
  %10 = phi i32 [ %7, %5 ], [ 0, %8 ]
  %11 = add nsw i32 280, %10
  ret i32 %11
}

; Function Attrs: nounwind uwtable
define hidden void @VP8LHistogramInit(ptr noundef %0, i32 noundef %1, i32 noundef %2) #0 {
  %4 = alloca ptr, align 8
  %5 = alloca i32, align 4
  %6 = alloca i32, align 4
  store ptr %0, ptr %4, align 8, !tbaa !3
  store i32 %1, ptr %5, align 4, !tbaa !14
  store i32 %2, ptr %6, align 4, !tbaa !14
  %7 = load i32, ptr %5, align 4, !tbaa !14
  %8 = load ptr, ptr %4, align 8, !tbaa !3
  %9 = getelementptr inbounds nuw %struct.VP8LHistogram, ptr %8, i32 0, i32 5
  store i32 %7, ptr %9, align 8, !tbaa !21
  %10 = load i32, ptr %6, align 4, !tbaa !14
  %11 = icmp ne i32 %10, 0
  br i1 %11, label %12, label %14

12:                                               ; preds = %3
  %13 = load ptr, ptr %4, align 8, !tbaa !3
  call void @HistogramClear(ptr noundef %13)
  br label %28

14:                                               ; preds = %3
  %15 = load ptr, ptr %4, align 8, !tbaa !3
  %16 = getelementptr inbounds nuw %struct.VP8LHistogram, ptr %15, i32 0, i32 6
  store i32 0, ptr %16, align 4, !tbaa !23
  %17 = load ptr, ptr %4, align 8, !tbaa !3
  %18 = getelementptr inbounds nuw %struct.VP8LHistogram, ptr %17, i32 0, i32 7
  store i64 0, ptr %18, align 8, !tbaa !24
  %19 = load ptr, ptr %4, align 8, !tbaa !3
  %20 = getelementptr inbounds nuw %struct.VP8LHistogram, ptr %19, i32 0, i32 8
  store i64 0, ptr %20, align 8, !tbaa !25
  %21 = load ptr, ptr %4, align 8, !tbaa !3
  %22 = getelementptr inbounds nuw %struct.VP8LHistogram, ptr %21, i32 0, i32 9
  store i64 0, ptr %22, align 8, !tbaa !26
  %23 = load ptr, ptr %4, align 8, !tbaa !3
  %24 = getelementptr inbounds nuw %struct.VP8LHistogram, ptr %23, i32 0, i32 10
  store i64 0, ptr %24, align 8, !tbaa !27
  %25 = load ptr, ptr %4, align 8, !tbaa !3
  %26 = getelementptr inbounds nuw %struct.VP8LHistogram, ptr %25, i32 0, i32 11
  %27 = getelementptr inbounds [5 x i8], ptr %26, i64 0, i64 0
  call void @llvm.memset.p0.i64(ptr align 8 %27, i8 0, i64 5, i1 false)
  br label %28

28:                                               ; preds = %14, %12
  ret void
}

; Function Attrs: nounwind uwtable
define internal i32 @GetHistogramSize(i32 noundef %0) #0 {
  %2 = alloca i32, align 4
  %3 = alloca i32, align 4
  %4 = alloca i64, align 8
  store i32 %0, ptr %2, align 4, !tbaa !14
  call void @llvm.lifetime.start.p0(i64 4, ptr %3) #7
  %5 = load i32, ptr %2, align 4, !tbaa !14
  %6 = call i32 @VP8LHistogramNumCodes(i32 noundef %5)
  store i32 %6, ptr %3, align 4, !tbaa !14
  call void @llvm.lifetime.start.p0(i64 8, ptr %4) #7
  %7 = load i32, ptr %3, align 4, !tbaa !14
  %8 = sext i32 %7 to i64
  %9 = mul i64 4, %8
  %10 = add i64 3288, %9
  store i64 %10, ptr %4, align 8, !tbaa !30
  %11 = load i64, ptr %4, align 8, !tbaa !30
  %12 = trunc i64 %11 to i32
  call void @llvm.lifetime.end.p0(i64 8, ptr %4) #7
  call void @llvm.lifetime.end.p0(i64 4, ptr %3) #7
  ret i32 %12
}

; Function Attrs: nounwind uwtable
define hidden ptr @VP8LAllocateHistogram(i32 noundef %0) #0 {
  %2 = alloca ptr, align 8
  %3 = alloca i32, align 4
  %4 = alloca ptr, align 8
  %5 = alloca i32, align 4
  %6 = alloca ptr, align 8
  %7 = alloca i32, align 4
  store i32 %0, ptr %3, align 4, !tbaa !14
  call void @llvm.lifetime.start.p0(i64 8, ptr %4) #7
  store ptr null, ptr %4, align 8, !tbaa !3
  call void @llvm.lifetime.start.p0(i64 4, ptr %5) #7
  %8 = load i32, ptr %3, align 4, !tbaa !14
  %9 = call i32 @GetHistogramSize(i32 noundef %8)
  store i32 %9, ptr %5, align 4, !tbaa !14
  call void @llvm.lifetime.start.p0(i64 8, ptr %6) #7
  %10 = load i32, ptr %5, align 4, !tbaa !14
  %11 = sext i32 %10 to i64
  %12 = call ptr @WebPSafeMalloc(i64 noundef %11, i64 noundef 1)
  store ptr %12, ptr %6, align 8, !tbaa !28
  %13 = load ptr, ptr %6, align 8, !tbaa !28
  %14 = icmp eq ptr %13, null
  br i1 %14, label %15, label %16

15:                                               ; preds = %1
  store ptr null, ptr %2, align 8
  store i32 1, ptr %7, align 4
  br label %25

16:                                               ; preds = %1
  %17 = load ptr, ptr %6, align 8, !tbaa !28
  store ptr %17, ptr %4, align 8, !tbaa !3
  %18 = load ptr, ptr %6, align 8, !tbaa !28
  %19 = getelementptr inbounds nuw i8, ptr %18, i64 3288
  %20 = load ptr, ptr %4, align 8, !tbaa !3
  %21 = getelementptr inbounds nuw %struct.VP8LHistogram, ptr %20, i32 0, i32 0
  store ptr %19, ptr %21, align 8, !tbaa !16
  %22 = load ptr, ptr %4, align 8, !tbaa !3
  %23 = load i32, ptr %3, align 4, !tbaa !14
  call void @VP8LHistogramInit(ptr noundef %22, i32 noundef %23, i32 noundef 0)
  %24 = load ptr, ptr %4, align 8, !tbaa !3
  store ptr %24, ptr %2, align 8
  store i32 1, ptr %7, align 4
  br label %25

25:                                               ; preds = %16, %15
  call void @llvm.lifetime.end.p0(i64 8, ptr %6) #7
  call void @llvm.lifetime.end.p0(i64 4, ptr %5) #7
  call void @llvm.lifetime.end.p0(i64 8, ptr %4) #7
  %26 = load ptr, ptr %2, align 8
  ret ptr %26
}