; Function Attrs: nounwind uwtable
define hidden ptr @VP8LAllocateHistogram(i32 noundef %0) local_unnamed_addr #0 {
  %2 = icmp sgt i32 %0, 0
  %3 = shl i32 4, %0
  %4 = add nuw i32 %3, 4408
  %5 = select i1 %2, i32 %4, i32 4408
  %6 = sext i32 %5 to i64
  %7 = tail call ptr @WebPSafeMalloc(i64 noundef %6, i64 noundef 1) #10
  %8 = icmp eq ptr %7, null
  br i1 %8, label %13, label %9

9:                                                ; preds = %1
  %10 = getelementptr inbounds nuw i8, ptr %7, i64 3288
  store ptr %10, ptr %7, align 8, !tbaa !18
  %11 = getelementptr inbounds nuw i8, ptr %7, i64 3240
  store i32 %0, ptr %11, align 8, !tbaa !24
  %12 = getelementptr inbounds nuw i8, ptr %7, i64 3244
  tail call void @llvm.memset.p0.i64(ptr noundef nonnull align 4 dereferenceable(41) %12, i8 0, i64 41, i1 false)
  br label %13

13:                                               ; preds = %1, %9
  ret ptr %7
}